target datalayout = "e-m:e-p270:32:32-p271:32:32-p272:64:64-i64:64-i128:128-f80:128-n8:16:32:64-S128"
target triple = "x86_64-pc-linux-gnu"

@.str = private unnamed_addr constant [5 x i8] c"%d'b\00", align 1

; Function Attrs: nounwind uwtable
define ptr @Wln_ConstFromStr(ptr noundef %0, i32 noundef %1) #0 {
  %3 = alloca ptr, align 8
  %4 = alloca i32, align 4
  %5 = alloca ptr, align 8
  %6 = alloca i32, align 4
  %7 = alloca i32, align 4
  store ptr %0, ptr %3, align 8, !tbaa !10
  store i32 %1, ptr %4, align 4, !tbaa !8
  call void @llvm.lifetime.start.p0(i64 8, ptr %5) #8
  %8 = load i32, ptr %4, align 4, !tbaa !8
  %9 = add nsw i32 %8, 100
  %10 = sext i32 %9 to i64
  %11 = mul i64 1, %10
  %12 = call noalias ptr @malloc(i64 noundef %11) #9
  store ptr %12, ptr %5, align 8, !tbaa !10
  call void @llvm.lifetime.start.p0(i64 4, ptr %6) #8
  call void @llvm.lifetime.start.p0(i64 4, ptr %7) #8
  %13 = load ptr, ptr %5, align 8, !tbaa !10
  %14 = load i32, ptr %4, align 4, !tbaa !8
  %15 = call i32 (ptr, ptr, ...) @sprintf(ptr noundef %13, ptr noundef @.str, i32 noundef %14) #8
  %16 = load ptr, ptr %5, align 8, !tbaa !10
  %17 = call i64 @strlen(ptr noundef %16) #10
  %18 = trunc i64 %17 to i32
  store i32 %18, ptr %7, align 4, !tbaa !8
  store i32 0, ptr %6, align 4, !tbaa !8
  br label %19

19:                                               ; preds = %34, %2
  %20 = load i32, ptr %6, align 4, !tbaa !8
  %21 = load i32, ptr %4, align 4, !tbaa !8
  %22 = icmp slt i32 %20, %21
  br i1 %22, label %23, label %37

23:                                               ; preds = %19
  %24 = load ptr, ptr %3, align 8, !tbaa !10
  %25 = load i32, ptr %6, align 4, !tbaa !8
  %26 = sext i32 %25 to i64
  %27 = getelementptr inbounds i8, ptr %24, i64 %26
  %28 = load i8, ptr %27, align 1, !tbaa !12
  %29 = load ptr, ptr %5, align 8, !tbaa !10
  %30 = load i32, ptr %7, align 4, !tbaa !8
  %31 = add nsw i32 %30, 1
  store i32 %31, ptr %7, align 4, !tbaa !8
  %32 = sext i32 %30 to i64
  %33 = getelementptr inbounds i8, ptr %29, i64 %32
  store i8 %28, ptr %33, align 1, !tbaa !12
  br label %34

34:                                               ; preds = %23
  %35 = load i32, ptr %6, align 4, !tbaa !8
  %36 = add nsw i32 %35, 1
  store i32 %36, ptr %6, align 4, !tbaa !8
  br label %19, !llvm.loop !15

37:                                               ; preds = %19
  %38 = load ptr, ptr %5, align 8, !tbaa !10
  %39 = load i32, ptr %7, align 4, !tbaa !8
  %40 = sext i32 %39 to i64
  %41 = getelementptr inbounds i8, ptr %38, i64 %40
  store i8 0, ptr %41, align 1, !tbaa !12
  %42 = load ptr, ptr %5, align 8, !tbaa !10
  call void @llvm.lifetime.end.p0(i64 4, ptr %7) #8
  call void @llvm.lifetime.end.p0(i64 4, ptr %6) #8
  call void @llvm.lifetime.end.p0(i64 8, ptr %5) #8
  ret ptr %42
}