; Function Attrs: nofree nounwind uwtable
define noalias noundef ptr @Wln_ConstFromStr(ptr noundef readonly captures(none) %0, i32 noundef %1) local_unnamed_addr #0 {
  %3 = add nsw i32 %1, 100
  %4 = sext i32 %3 to i64
  %5 = tail call noalias ptr @malloc(i64 noundef %4) #14
  %6 = tail call i32 (ptr, ptr, ...) @sprintf(ptr noundef nonnull dereferenceable(1) %5, ptr noundef nonnull dereferenceable(1) @.str, i32 noundef %1) #15
  %7 = tail call i64 @strlen(ptr noundef nonnull dereferenceable(1) %5) #16
  %8 = trunc i64 %7 to i32
  %9 = icmp sgt i32 %1, 0
  br i1 %9, label %.lr.ph.preheader, label %._crit_edge

.lr.ph.preheader:                                 ; preds = %2
  %sext = shl i64 %7, 32
  %10 = ashr exact i64 %sext, 32
  %scevgep = getelementptr i8, ptr %5, i64 %10
  %11 = zext nneg i32 %1 to i64
  tail call void @llvm.memcpy.p0.p0.i64(ptr align 1 %scevgep, ptr align 1 %0, i64 %11, i1 false), !tbaa !7
  %12 = trunc i64 %7 to i32
  %13 = add i32 %1, %12
  br label %._crit_edge

._crit_edge:                                      ; preds = %.lr.ph.preheader, %2
  %.0.lcssa = phi i32 [ %8, %2 ], [ %13, %.lr.ph.preheader ]
  %14 = sext i32 %.0.lcssa to i64
  %15 = getelementptr inbounds i8, ptr %5, i64 %14
  store i8 0, ptr %15, align 1, !tbaa !7
  ret ptr %5
}